target datalayout = "e-m:e-p270:32:32-p271:32:32-p272:64:64-i64:64-i128:128-f80:128-n8:16:32:64-S128"
target triple = "x86_64-pc-linux-gnu"

%struct.VVCTask = type { %union.anon.2, i32, i32, i32, i32, ptr, %struct.ProgressListener, [2 x [29 x %struct.ProgressListener]], ptr, ptr, i32, [10 x i8], i8 }
%union.anon.2 = type { %struct.FFTask }
%struct.FFTask = type { ptr, i32 }
%struct.ProgressListener = type { %struct.VVCProgressListener, ptr, ptr }
%struct.VVCProgressListener = type { i32, i32, ptr, ptr }
%struct.VVCFrameContext = type { ptr, [17 x %struct.VVCFrame], ptr, ptr, %struct.VVCFrameParamSets, ptr, i32, i32, ptr, %struct.VVCDSPContext, %struct.VideoDSPContext, ptr, i64, ptr, ptr, ptr, ptr, %struct.anon }
%struct.VVCFrame = type { ptr, ptr, ptr, ptr, ptr, ptr, i32, i32, i32, %struct.VVCWindow, i32, i32, ptr, ptr, i16, i8, ptr }
%struct.VVCWindow = type { i16, i16, i16, i16 }
%struct.VVCFrameParamSets = type { ptr, ptr, %struct.VVCPH, [8 x ptr], %struct.VVCLMCS, ptr }
%struct.VVCPH = type { ptr, ptr, i32, i32, i8, [3 x i16], i8, [3 x i16], %struct.PredWeightTable }
%struct.PredWeightTable = type { [2 x i8], [2 x i8], [2 x [2 x [15 x i8]]], [2 x [3 x [15 x i16]]], [2 x [3 x [15 x i16]]] }
%struct.VVCLMCS = type { i8, i8, %union.anon, %union.anon, [17 x i16], [16 x i16] }
%union.anon = type { [4096 x i16] }
%struct.VVCDSPContext = type { %struct.VVCInterDSPContext, %struct.VVCIntraDSPContext, %struct.VVCItxDSPContext, %struct.VVCLMCSDSPContext, %struct.VVCLFDSPContext, %struct.VVCSAODSPContext, %struct.VVCALFDSPContext }
%struct.VVCInterDSPContext = type { [2 x [7 x [2 x [2 x ptr]]]], [2 x [7 x [2 x [2 x ptr]]]], [2 x [7 x [2 x [2 x ptr]]]], [2 x [7 x ptr]], [2 x [7 x ptr]], [2 x [7 x ptr]], ptr, ptr, ptr, ptr, ptr, ptr, ptr, ptr, ptr, ptr, ptr, [2 x [2 x ptr]] }
%struct.VVCIntraDSPContext = type { ptr, ptr, ptr, ptr, ptr, ptr, ptr, ptr, ptr, ptr }
%struct.VVCItxDSPContext = type { ptr, ptr, [3 x [6 x ptr]], ptr, ptr }
%struct.VVCLMCSDSPContext = type { ptr }
%struct.VVCLFDSPContext = type { [2 x ptr], [2 x ptr], [2 x ptr] }
%struct.VVCSAODSPContext = type { [9 x ptr], [9 x ptr], [2 x ptr] }
%struct.VVCALFDSPContext = type { [2 x ptr], ptr, ptr, ptr }
%struct.VideoDSPContext = type { ptr, ptr }
%struct.anon = type { ptr, ptr, ptr, ptr, [2 x ptr], [2 x ptr], [2 x ptr], [2 x ptr], [2 x ptr], [3 x ptr], ptr, ptr, [2 x ptr], ptr, ptr, [2 x ptr], ptr, ptr, ptr, [2 x ptr], ptr, [3 x ptr], ptr, [2 x ptr], [2 x ptr], [2 x ptr], [2 x [3 x ptr]], [2 x ptr], [2 x ptr], [3 x ptr], [3 x ptr], [3 x [2 x ptr]], [3 x [2 x ptr]], ptr, ptr, ptr, [3 x ptr], %struct.anon.0 }
%struct.anon.0 = type { i32, i32, i32, i32, i32, i32, i32, i32, i32, i32, i32, i32 }
%struct.VVCFrameThread = type { i32, ptr, ptr, i32, i32, i32, i32, i32, i32, [2 x i32], %union.pthread_mutex_t, %union.pthread_cond_t }
%union.pthread_mutex_t = type { %struct.__pthread_mutex_s }
%struct.__pthread_mutex_s = type { i32, i32, i32, i32, i32, i16, i16, %struct.__pthread_internal_list }
%struct.__pthread_internal_list = type { ptr, ptr }
%union.pthread_cond_t = type { %struct.__pthread_cond_s }
%struct.__pthread_cond_s = type { %union.__atomic_wide_counter, %union.__atomic_wide_counter, [2 x i32], [2 x i32], i32, i32, [2 x i32] }
%union.__atomic_wide_counter = type { i64 }
%struct.VVCPPS = type { ptr, [3 x i8], [6 x [3 x i8]], i16, i16, [1000 x i16], [1000 x i16], i16, i16, i16, i16, i32, i16, i16, i16, i16, ptr, ptr, ptr, ptr, ptr, i16, i16, i16, i16, i16, [1000 x i16], [1000 x i16], [1000 x i16], [1000 x i16] }
%struct.VVCSPS = type { ptr, [3 x i8], [3 x i8], i32, i8, i32, i8, i8, i8, i16, i8, i8, i8, i8, i8, i8, i8, i8, [5 x i32], i8, i8, [3 x [111 x i8]] }
%struct.H266RawNALUnitHeader = type { i8, i8, i8, i8 }
%struct.H266RefPicListStruct = type { i8, i8, [29 x i8], [29 x i8], [29 x i8], [29 x i8], [29 x i8], [29 x i8] }
%struct.H266RawSPS = type { %struct.H266RawNALUnitHeader, i8, i8, i8, i8, i8, i8, %struct.H266RawProfileTierLevel, i8, i8, i8, i16, i16, i8, i16, i16, i16, i16, i8, i16, i8, i8, [1000 x i16], [1000 x i16], [1000 x i16], [1000 x i16], [1000 x i8], [1000 x i8], i8, i8, i8, [1000 x i32], i8, i8, i8, i8, i8, i8, i8, [16 x i8], i8, [16 x i8], i8, %struct.H266DpbParameters, i8, i8, i8, i8, i8, i8, i8, i8, i8, i8, i8, i8, i8, i8, i8, i8, i8, i8, i8, i8, i8, i8, i8, i8, i8, [3 x i8], [3 x i8], [3 x [111 x i8]], [3 x [111 x i8]], i8, i8, i8, i8, i8, i8, i8, i8, i8, i8, [2 x i8], [2 x [64 x %struct.H266RefPicListStruct]], i8, i8, i8, i8, i8, i8, i8, i8, i8, i8, i8, i8, i8, i8, i8, i8, i8, i8, i8, i8, i8, i8, i8, i8, i8, i8, i8, i8, i8, i8, i8, i8, i8, i8, i8, i8, i8, i8, [4 x i8], [4 x i16], i8, i8, i8, i8, i8, i8, i8, i8, i8, [3 x i16], i8, [3 x i16], i8, i8, %struct.H266RawGeneralTimingHrdParameters, %struct.H266RawOlsTimingHrdParameters, i8, i8, i16, %struct.H266RawVUI, i8, i8, i8, i8, i8, i8, i8, i8, %struct.H266RawExtensionData }
%struct.H266RawProfileTierLevel = type { i8, i8, i8, i8, i8, %struct.H266GeneralConstraintsInfo, [6 x i8], [6 x i8], i8, [256 x i32], i8 }
%struct.H266GeneralConstraintsInfo = type { i8, i8, i8, i8, i8, i8, i8, i8, i8, i8, i8, i8, i8, i8, i8, i8, i8, i8, i8, i8, i8, i8, i8, i8, i8, i8, i8, i8, i8, i8, i8, i8, i8, i8, i8, i8, i8, i8, i8, i8, i8, i8, i8, i8, i8, i8, i8, i8, i8, i8, i8, i8, i8, i8, i8, i8, i8, i8, i8, i8, i8, i8, i8, i8, i8, i8, i8, i8, [255 x i8], i8, i8, i8, i8, i8, i8 }
%struct.H266DpbParameters = type { [7 x i8], [7 x i8], [7 x i8] }
%struct.H266RawGeneralTimingHrdParameters = type { i32, i32, i8, i8, i8, i8, i8, i8, i8, i8, i8 }
%struct.H266RawOlsTimingHrdParameters = type { [7 x i8], [7 x i8], [7 x i16], [7 x i8], %struct.H266RawSubLayerHRDParameters, %struct.H266RawSubLayerHRDParameters }
%struct.H266RawSubLayerHRDParameters = type { [7 x [32 x i32]], [7 x [32 x i32]], [7 x [32 x i32]], [7 x [32 x i32]], [7 x [32 x i8]] }
%struct.H266RawVUI = type { i8, i8, i8, i8, i8, i8, i8, i16, i16, i8, i8, i8, i8, i8, i8, i8, i8, i8, i8, i8, %struct.H266RawExtensionData }
%struct.H266RawExtensionData = type { ptr, ptr, i64 }

@task_has_target_score.target_score = internal constant [8 x i8] c"\02\00\02\03\01\02\05\08", align 1
@.str.12 = private unnamed_addr constant [30 x i8] c"Assertion %s failed at %s:%d\0A\00", align 1
@.str.13 = private unnamed_addr constant [20 x i8] c"score <= target + 1\00", align 1
@.str.14 = private unnamed_addr constant [24 x i8] c"libavcodec/vvc/thread.c\00", align 1

; Function Attrs: nounwind uwtable
define internal i32 @is_first_row(ptr noundef %0, i32 noundef %1, i32 noundef %2) #0 {
  %4 = alloca i32, align 4
  %5 = alloca ptr, align 8
  %6 = alloca i32, align 4
  %7 = alloca i32, align 4
  %8 = alloca ptr, align 8
  %9 = alloca ptr, align 8
  %10 = alloca i32, align 4
  %11 = alloca i32, align 4
  store ptr %0, ptr %5, align 8, !tbaa !82
  store i32 %1, ptr %6, align 4, !tbaa !9
  store i32 %2, ptr %7, align 4, !tbaa !9
  call void @llvm.lifetime.start.p0(i64 8, ptr %8) #7
  %12 = load ptr, ptr %5, align 8, !tbaa !82
  %13 = getelementptr inbounds nuw %struct.VVCFrameContext, ptr %12, i32 0, i32 11
  %14 = load ptr, ptr %13, align 8, !tbaa !31
  store ptr %14, ptr %8, align 8, !tbaa !68
  call void @llvm.lifetime.start.p0(i64 8, ptr %9) #7
  %15 = load ptr, ptr %5, align 8, !tbaa !82
  %16 = getelementptr inbounds nuw %struct.VVCFrameContext, ptr %15, i32 0, i32 4
  %17 = getelementptr inbounds nuw %struct.VVCFrameParamSets, ptr %16, i32 0, i32 1
  %18 = load ptr, ptr %17, align 8, !tbaa !85
  store ptr %18, ptr %9, align 8, !tbaa !86
  %19 = load i32, ptr %7, align 4, !tbaa !9
  %20 = load ptr, ptr %9, align 8, !tbaa !86
  %21 = getelementptr inbounds nuw %struct.VVCPPS, ptr %20, i32 0, i32 20
  %22 = load ptr, ptr %21, align 8, !tbaa !216
  %23 = load i32, ptr %7, align 4, !tbaa !9
  %24 = sext i32 %23 to i64
  %25 = getelementptr inbounds i16, ptr %22, i64 %24
  %26 = load i16, ptr %25, align 2, !tbaa !191
  %27 = zext i16 %26 to i32
  %28 = icmp ne i32 %19, %27
  br i1 %28, label %29, label %61

29:                                               ; preds = %3
  call void @llvm.lifetime.start.p0(i64 4, ptr %10) #7
  %30 = load i32, ptr %7, align 4, !tbaa !9
  %31 = load ptr, ptr %8, align 8, !tbaa !68
  %32 = getelementptr inbounds nuw %struct.VVCFrameThread, ptr %31, i32 0, i32 4
  %33 = load i32, ptr %32, align 4, !tbaa !87
  %34 = mul nsw i32 %30, %33
  %35 = load i32, ptr %6, align 4, !tbaa !9
  %36 = add nsw i32 %34, %35
  store i32 %36, ptr %10, align 4, !tbaa !9
  %37 = load ptr, ptr %5, align 8, !tbaa !82
  %38 = getelementptr inbounds nuw %struct.VVCFrameContext, ptr %37, i32 0, i32 17
  %39 = getelementptr inbounds nuw %struct.anon, ptr %38, i32 0, i32 0
  %40 = load ptr, ptr %39, align 8, !tbaa !202
  %41 = load i32, ptr %10, align 4, !tbaa !9
  %42 = sext i32 %41 to i64
  %43 = getelementptr inbounds i16, ptr %40, i64 %42
  %44 = load i16, ptr %43, align 2, !tbaa !191
  %45 = sext i16 %44 to i32
  %46 = load ptr, ptr %5, align 8, !tbaa !82
  %47 = getelementptr inbounds nuw %struct.VVCFrameContext, ptr %46, i32 0, i32 17
  %48 = getelementptr inbounds nuw %struct.anon, ptr %47, i32 0, i32 0
  %49 = load ptr, ptr %48, align 8, !tbaa !202
  %50 = load i32, ptr %10, align 4, !tbaa !9
  %51 = load ptr, ptr %8, align 8, !tbaa !68
  %52 = getelementptr inbounds nuw %struct.VVCFrameThread, ptr %51, i32 0, i32 4
  %53 = load i32, ptr %52, align 4, !tbaa !87
  %54 = sub nsw i32 %50, %53
  %55 = sext i32 %54 to i64
  %56 = getelementptr inbounds i16, ptr %49, i64 %55
  %57 = load i16, ptr %56, align 2, !tbaa !191
  %58 = sext i16 %57 to i32
  %59 = icmp ne i32 %45, %58
  %60 = zext i1 %59 to i32
  store i32 %60, ptr %4, align 4
  store i32 1, ptr %11, align 4
  call void @llvm.lifetime.end.p0(i64 4, ptr %10) #7
  br label %62

61:                                               ; preds = %3
  store i32 1, ptr %4, align 4
  store i32 1, ptr %11, align 4
  br label %62

62:                                               ; preds = %61, %29
  call void @llvm.lifetime.end.p0(i64 8, ptr %9) #7
  call void @llvm.lifetime.end.p0(i64 8, ptr %8) #7
  %63 = load i32, ptr %4, align 4
  ret i32 %63
}

; Function Attrs: nounwind uwtable
define internal i32 @task_has_target_score(ptr noundef %0, i32 noundef %1, i8 noundef zeroext %2) #0 {
  %4 = alloca i32, align 4
  %5 = alloca ptr, align 8
  %6 = alloca i32, align 4
  %7 = alloca i8, align 1
  %8 = alloca i8, align 1
  %9 = alloca ptr, align 8
  %10 = alloca i32, align 4
  %11 = alloca ptr, align 8
  %12 = alloca i32, align 4
  %13 = alloca i32, align 4
  %14 = alloca i8, align 1
  store ptr %0, ptr %5, align 8, !tbaa !19
  store i32 %1, ptr %6, align 4, !tbaa !9
  store i8 %2, ptr %7, align 1, !tbaa !109
  call void @llvm.lifetime.start.p0(i64 1, ptr %8) #7
  store i8 0, ptr %8, align 1, !tbaa !109
  call void @llvm.lifetime.start.p0(i64 8, ptr %9) #7
  %15 = load ptr, ptr %5, align 8, !tbaa !19
  %16 = getelementptr inbounds nuw %struct.VVCTask, ptr %15, i32 0, i32 5
  %17 = load ptr, ptr %16, align 8, !tbaa !23
  store ptr %17, ptr %9, align 8, !tbaa !82
  %18 = load i32, ptr %6, align 4, !tbaa !9
  %19 = icmp eq i32 %18, 0
  br i1 %19, label %20, label %21

20:                                               ; preds = %3
  store i32 1, ptr %4, align 4
  store i32 1, ptr %10, align 4
  br label %94

21:                                               ; preds = %3
  %22 = load i32, ptr %6, align 4, !tbaa !9
  %23 = icmp eq i32 %22, 1
  br i1 %23, label %24, label %60

24:                                               ; preds = %21
  call void @llvm.lifetime.start.p0(i64 8, ptr %11) #7
  %25 = load ptr, ptr %9, align 8, !tbaa !82
  %26 = getelementptr inbounds nuw %struct.VVCFrameContext, ptr %25, i32 0, i32 4
  %27 = getelementptr inbounds nuw %struct.VVCFrameParamSets, ptr %26, i32 0, i32 0
  %28 = load ptr, ptr %27, align 8, !tbaa !83
  %29 = getelementptr inbounds nuw %struct.VVCSPS, ptr %28, i32 0, i32 0
  %30 = load ptr, ptr %29, align 8, !tbaa !168
  store ptr %30, ptr %11, align 8, !tbaa !219
  call void @llvm.lifetime.start.p0(i64 4, ptr %12) #7
  %31 = load ptr, ptr %11, align 8, !tbaa !219
  %32 = getelementptr inbounds nuw %struct.H266RawSPS, ptr %31, i32 0, i32 33
  %33 = load i8, ptr %32, align 1, !tbaa !203
  %34 = zext i8 %33 to i32
  %35 = icmp ne i32 %34, 0
  br i1 %35, label %36, label %47

36:                                               ; preds = %24
  %37 = load ptr, ptr %9, align 8, !tbaa !82
  %38 = load ptr, ptr %5, align 8, !tbaa !19
  %39 = getelementptr inbounds nuw %struct.VVCTask, ptr %38, i32 0, i32 2
  %40 = load i32, ptr %39, align 4, !tbaa !78
  %41 = load ptr, ptr %5, align 8, !tbaa !19
  %42 = getelementptr inbounds nuw %struct.VVCTask, ptr %41, i32 0, i32 3
  %43 = load i32, ptr %42, align 8, !tbaa !79
  %44 = call i32 @is_first_row(ptr noundef %37, i32 noundef %40, i32 noundef %43)
  %45 = icmp ne i32 %44, 0
  %46 = xor i1 %45, true
  br label %47

47:                                               ; preds = %36, %24
  %48 = phi i1 [ false, %24 ], [ %46, %36 ]
  %49 = zext i1 %48 to i32
  store i32 %49, ptr %12, align 4, !tbaa !9
  call void @llvm.lifetime.start.p0(i64 4, ptr %13) #7
  %50 = load ptr, ptr %5, align 8, !tbaa !19
  %51 = getelementptr inbounds nuw %struct.VVCTask, ptr %50, i32 0, i32 4
  %52 = load i32, ptr %51, align 4, !tbaa !108
  %53 = icmp sgt i32 %52, 0
  %54 = zext i1 %53 to i32
  store i32 %54, ptr %13, align 4, !tbaa !9
  %55 = load i32, ptr %12, align 4, !tbaa !9
  %56 = add nsw i32 2, %55
  %57 = load i32, ptr %13, align 4, !tbaa !9
  %58 = sub nsw i32 %56, %57
  %59 = trunc i32 %58 to i8
  store i8 %59, ptr %8, align 1, !tbaa !109
  call void @llvm.lifetime.end.p0(i64 4, ptr %13) #7
  call void @llvm.lifetime.end.p0(i64 4, ptr %12) #7
  call void @llvm.lifetime.end.p0(i64 8, ptr %11) #7
  br label %75

60:                                               ; preds = %21
  %61 = load i32, ptr %6, align 4, !tbaa !9
  %62 = icmp eq i32 %61, 3
  br i1 %62, label %63, label %68

63:                                               ; preds = %60
  %64 = load ptr, ptr %5, align 8, !tbaa !19
  %65 = getelementptr inbounds nuw %struct.VVCTask, ptr %64, i32 0, i32 12
  %66 = load atomic i8, ptr %65 seq_cst, align 2
  store i8 %66, ptr %14, align 1
  %67 = load i8, ptr %14, align 1, !tbaa !109
  store i8 %67, ptr %8, align 1, !tbaa !109
  br label %74

68:                                               ; preds = %60
  %69 = load i32, ptr %6, align 4, !tbaa !9
  %70 = sub i32 %69, 2
  %71 = zext i32 %70 to i64
  %72 = getelementptr inbounds nuw [8 x i8], ptr @task_has_target_score.target_score, i64 0, i64 %71
  %73 = load i8, ptr %72, align 1, !tbaa !109
  store i8 %73, ptr %8, align 1, !tbaa !109
  br label %74

74:                                               ; preds = %68, %63
  br label %75

75:                                               ; preds = %74, %47
  br label %76

76:                                               ; preds = %75
  %77 = load i8, ptr %7, align 1, !tbaa !109
  %78 = zext i8 %77 to i32
  %79 = load i8, ptr %8, align 1, !tbaa !109
  %80 = zext i8 %79 to i32
  %81 = add nsw i32 %80, 1
  %82 = icmp sle i32 %78, %81
  br i1 %82, label %84, label %83

83:                                               ; preds = %76
  call void (ptr, i32, ptr, ...) @av_log(ptr noundef null, i32 noundef 0, ptr noundef @.str.12, ptr noundef @.str.13, ptr noundef @.str.14, i32 noundef 213)
  call void @abort() #8
  unreachable

84:                                               ; preds = %76
  br label %85

85:                                               ; preds = %84
  br label %86

86:                                               ; preds = %85
  %87 = load i8, ptr %7, align 1, !tbaa !109
  %88 = zext i8 %87 to i32
  %89 = load i8, ptr %8, align 1, !tbaa !109
  %90 = zext i8 %89 to i32
  %91 = add nsw i32 %90, 1
  %92 = icmp eq i32 %88, %91
  %93 = zext i1 %92 to i32
  store i32 %93, ptr %4, align 4
  store i32 1, ptr %10, align 4
  br label %94

94:                                               ; preds = %86, %20
  call void @llvm.lifetime.end.p0(i64 8, ptr %9) #7
  call void @llvm.lifetime.end.p0(i64 1, ptr %8) #7
  %95 = load i32, ptr %4, align 4
  ret i32 %95
}