; Function Attrs: nounwind uwtable
define internal fastcc range(i32 0, 2) i32 @task_has_target_score(ptr noundef readonly captures(none) %0, i32 noundef range(i32 11, 10) %1, i8 noundef zeroext %2) unnamed_addr #0 {
  %4 = getelementptr inbounds nuw i8, ptr %0, i64 32
  %5 = load ptr, ptr %4, align 8, !tbaa !13
  switch i32 %1, label %52 [
    i32 0, label %65
    i32 1, label %6
    i32 3, label %49
  ]

6:                                                ; preds = %3
  %7 = getelementptr inbounds nuw i8, ptr %5, i64 1928
  %8 = load ptr, ptr %7, align 8, !tbaa !87
  %9 = load ptr, ptr %8, align 8, !tbaa !142
  %10 = getelementptr inbounds nuw i8, ptr %9, i64 15417
  %11 = load i8, ptr %10, align 1, !tbaa !143
  %.not = icmp eq i8 %11, 0
  br i1 %.not, label %is_first_row.exit, label %12

12:                                               ; preds = %6
  %13 = getelementptr inbounds nuw i8, ptr %0, i64 24
  %14 = load i32, ptr %13, align 8, !tbaa !83
  %15 = getelementptr inbounds nuw i8, ptr %5, i64 1936
  %16 = load ptr, ptr %15, align 8, !tbaa !88
  %17 = getelementptr inbounds nuw i8, ptr %16, i64 4088
  %18 = load ptr, ptr %17, align 8, !tbaa !154
  %19 = sext i32 %14 to i64
  %20 = getelementptr inbounds i16, ptr %18, i64 %19
  %21 = load i16, ptr %20, align 2, !tbaa !155
  %22 = zext i16 %21 to i32
  %.not.i = icmp eq i32 %14, %22
  br i1 %.not.i, label %is_first_row.exit, label %23

23:                                               ; preds = %12
  %24 = getelementptr inbounds nuw i8, ptr %0, i64 20
  %25 = load i32, ptr %24, align 4, !tbaa !82
  %26 = getelementptr inbounds nuw i8, ptr %5, i64 21288
  %27 = load ptr, ptr %26, align 8, !tbaa !23
  %28 = getelementptr inbounds nuw i8, ptr %27, i64 28
  %29 = load i32, ptr %28, align 4, !tbaa !89
  %30 = mul nsw i32 %29, %14
  %31 = add nsw i32 %30, %25
  %32 = getelementptr inbounds nuw i8, ptr %5, i64 21336
  %33 = load ptr, ptr %32, align 8, !tbaa !156
  %34 = sext i32 %31 to i64
  %35 = getelementptr inbounds i16, ptr %33, i64 %34
  %36 = load i16, ptr %35, align 2, !tbaa !155
  %37 = sub nsw i32 %31, %29
  %38 = sext i32 %37 to i64
  %39 = getelementptr inbounds i16, ptr %33, i64 %38
  %40 = load i16, ptr %39, align 2, !tbaa !155
  %41 = icmp ne i16 %36, %40
  %42 = zext i1 %41 to i8
  %43 = xor i8 %42, 3
  br label %is_first_row.exit

is_first_row.exit:                                ; preds = %23, %12, %6
  %44 = phi i8 [ 2, %6 ], [ %43, %23 ], [ 2, %12 ]
  %45 = getelementptr inbounds nuw i8, ptr %0, i64 28
  %46 = load i32, ptr %45, align 4, !tbaa !111
  %47 = icmp sgt i32 %46, 0
  %.neg = sext i1 %47 to i8
  %48 = add nsw i8 %44, %.neg
  br label %57

49:                                               ; preds = %3
  %50 = getelementptr inbounds nuw i8, ptr %0, i64 2430
  %51 = load atomic i8, ptr %50 seq_cst, align 2
  br label %57

52:                                               ; preds = %3
  %53 = add i32 %1, -2
  %54 = zext i32 %53 to i64
  %55 = getelementptr inbounds nuw [8 x i8], ptr @task_has_target_score.target_score, i64 0, i64 %54
  %56 = load i8, ptr %55, align 1, !tbaa !192
  br label %57

57:                                               ; preds = %is_first_row.exit, %52, %49
  %.019 = phi i8 [ %48, %is_first_row.exit ], [ %51, %49 ], [ %56, %52 ]
  %58 = zext i8 %2 to i32
  %59 = zext i8 %.019 to i32
  %60 = add nuw nsw i32 %59, 1
  %.not24 = icmp samesign ult i32 %60, %58
  br i1 %.not24, label %61, label %62

61:                                               ; preds = %57
  tail call void (ptr, i32, ptr, ...) @av_log(ptr noundef null, i32 noundef 0, ptr noundef nonnull @.str.12, ptr noundef nonnull @.str.13, ptr noundef nonnull @.str.14, i32 noundef 213) #7
  tail call void @abort() #8
  unreachable

62:                                               ; preds = %57
  %63 = icmp eq i32 %60, %58
  %64 = zext i1 %63 to i32
  br label %65

65:                                               ; preds = %3, %62
  %.0 = phi i32 [ %64, %62 ], [ 1, %3 ]
  ret i32 %.0
}